ccopy_reg
_reconstructor
p1
(cnltk.tag.sequential
TrigramTagger
p2
c__builtin__
object
p3
NtRp4
(dp5
S'_taggers'
p6
(lp7
g4
ag1
(cnltk.tag.sequential
BigramTagger
p8
g3
NtRp9
(dp10
g6
(lp11
g9
ag1
(cnltk.tag.sequential
UnigramTagger
p12
g3
NtRp13
(dp14
g6
(lp15
g13
ag1
(cnltk.tag.sequential
AffixTagger
p16
g3
NtRp17
(dp18
g6
(lp19
g17
ag1
(cnltk.tag.sequential
DefaultTagger
p20
g3
NtRp21
(dp22
g6
(lp23
g21
asS'_tag'
p24
S'-None-'
p25
sbasS'_min_word_length'
p26
I0
sS'_context_to_tag'
p27
(dp28
VAGE
p29
VUNK
p30
sVall
p31
g30
sVCS
p32
g30
sVxts
p33
g30
sVaud
p34
g30
sVrek
p35
g30
sVaum
p36
g30
sVaul
p37
g30
sVaun
p38
g30
sVaut
p39
g30
sV343
p40
g30
sVG.
p41
g30
sVxth
p42
g30
sV@
g30
sVale
p43
g30
sVR'S
p44
g30
sVD.s
p45
g30
sVGM
p46
g30
sVfus
p47
g30
sVMAC
p48
g30
sV298
p49
g30
sVupt
p50
g30
sV295
p51
g30
sVzda
p52
g30
sVups
p53
g30
sV270
p54
g30
sV272
p55
g30
sV.Y.
p56
g30
sV276
p57
g30
sVnen
p58
g30
sVnel
p59
g30
sVnem
p60
g30
sVnei
p61
g30
sVned
p62
g30
sVnee
p63
g30
sVLSI
p64
g30
sVkun
p65
g30
sVain
p66
g30
sVkui
p67
g30
sVney
p68
g30
sVPut
p69
g30
sVnew
p70
g30
sVnet
p71
g30
sVner
p72
g30
sVnes
p73
g30
sVmed
p74
g30
sVlms
p75
g30
sVmen
p76
g30
sVmet
p77
g30
sV108
p78
g30
sV109
p79
g30
sVmes
p80
g30
sVmer
p81
g30
sV102
p82
g30
sV103
p83
g30
sV100
p84
g30
sV101
p85
g30
sV106
p86
g30
sVmex
p87
g30
sV104
p88
g30
sV105
p89
g30
sVdry
p90
g30
sVaks
p91
g30
sVgle
p92
g30
sVgly
p93
g30
sVaki
p94
g30
sVect
p95
g30
sVdra
p96
g30
sV-15
p97
g30
sVaka
p98
g30
sVake
p99
g30
sVCTS
p100
g30
sVSt.
p101
g30
sView
p102
g30
sVCTB
p103
g30
sV056
p104
g30
sV057
p105
g30
sVrit
p106
g30
sV99
p107
g30
sV98
p108
g30
sVnks
p109
g30
sVnku
p110
g30
sVaux
p111
g30
sV90
p112
g30
sV93
p113
g30
sV94
p114
g30
sVme
p115
g30
sV-up
p116
g30
sVers
p117
g30
sVery
p118
g30
sVORP
p119
g30
sVere
p120
g30
sVerf
p121
g30
sVerg
p122
g30
sVera
p123
g30
sVerc
p124
g30
sVerm
p125
g30
sVern
p126
g30
sVero
p127
g30
sVmy
p128
g30
sVeri
p129
g30
sVla.
p130
g30
sVIDS
p131
g30
sVLa
p132
g30
sVuar
p133
g30
sVLi
p134
g30
sVual
p135
g30
sV2.2
p136
g30
sVium
p137
g30
sVov.
p138
g30
sVuad
p139
g30
sVena
p140
g30
sVend
p141
g30
sVene
p142
g30
sVeng
p143
g30
sVhon
p144
g30
sVhol
p145
g30
sVhom
p146
g30
sVenn
p147
g30
sVONE
p148
g30
sVhow
p149
g30
sVhot
p150
g30
sVens
p151
g30
sVent
p152
g30
sVhop
p153
g30
sVeny
p154
g30
sVria
p155
g30
sVIII
p156
g30
sVA
g30
sVlan
p157
g30
sVL.
p158
g30
sVlag
p159
g30
sVlab
p160
g30
sVlay
p161
g30
sVove
p162
g30
sVlat
p163
g30
sVlaw
p164
g30
sVlap
p165
g30
sVlar
p166
g30
sVlas
p167
g30
sVAll
p168
g30
sVen.
p169
g30
sVAla
p170
g30
sVzed
p171
g30
sVzen
p172
g30
sV6.7
p173
g30
sVzes
p174
g30
sV6.5
p175
g30
sVATE
p176
g30
sV6.2
p177
g30
sV6.1
p178
g30
sV6.9
p179
g30
sVima
p180
g30
sVSAI
p181
g30
sVHis
p182
g30
sVime
p183
g30
sVfit
p184
g30
sVcle
p185
g30
sV,
g30
sVfic
p186
g30
sVims
p187
g30
sV403
p188
g30
sVcly
p189
g30
sV400
p190
g30
sVfin
p191
g30
sVSAT
p192
g30
sV.M.
p193
g30
sVAPH
p194
g30
sV40s
p195
g30
sV370
p196
g30
sV375
p197
g30
sV376
p198
g30
sVgon
p199
g30
sVsms
p200
g30
sVaja
p201
g30
sVnty
p202
g30
sVkip
p203
g30
sVnts
p204
g30
sVAFA
p205
g30
sV245
p206
g30
sVnth
p207
g30
sV247
p208
g30
sV246
p209
g30
sV241
p210
g30
sV240
p211
g30
sV243
p212
g30
sV242
p213
g30
sVnta
p214
g30
sVkit
p215
g30
sV249
p216
g30
sV248
p217
g30
sVisy
p218
g30
sVate
p219
g30
sVata
p220
g30
sViss
p221
g30
sVato
p222
g30
sVDGE
p223
g30
sVath
p224
g30
sVist
p225
g30
sVisk
p226
g30
sVatt
p227
g30
sVish
p228
g30
sViso
p229
g30
sVats
p230
g30
sVism
p231
g30
sVisa
p232
g30
sVise
p233
g30
sVDue
p234
g30
sV179
p235
g30
sV178
p236
g30
sV177
p237
g30
sVtel
p238
g30
sV175
p239
g30
sV174
p240
g30
sV173
p241
g30
sV172
p242
g30
sV171
p243
g30
sV170
p244
g30
sVtor
p245
g30
sVtos
p246
g30
sVtop
p247
g30
sVtow
p248
g30
sVtoh
p249
g30
sVton
p250
g30
sV-to
p251
g30
sVtol
p252
g30
sV194
p253
g30
sVB
g30
sVgyo
p254
g30
sVted
p255
g30
sV190
p256
g30
sVnzy
p257
g30
sVSea
p258
g30
sV274
p259
g30
sVnzo
p260
g30
sV.L.
p261
g30
sVty.
p262
g30
sVhue
p263
g30
sVran
p264
g30
sVral
p265
g30
sVram
p266
g30
sVrah
p267
g30
sVSol
p268
g30
sVraw
p269
g30
sV.29
p270
g30
sV.28
p271
g30
sVrap
p272
g30
sV.23
p273
g30
sV.22
p274
g30
sV.21
p275
g30
sV.20
p276
g30
sV.25
p277
g30
sVray
p278
g30
sVy-3
p279
g30
sVypt
p280
g30
sV-
g30
sVrce
p281
g30
sVPOP
p282
g30
sVype
p283
g30
sV-be
p284
g30
sVZ.
p285
g30
sV-by
p286
g30
sVtyr
p287
g30
sVdon
p288
g30
sVdom
p289
g30
sVlps
p290
g30
sVR
g30
sVlph
p291
g30
sVdor
p292
g30
sVdos
p293
g30
sVdow
p294
g30
sVPAP
p295
g30
sVude
p296
g30
sV7.3
p297
g30
sV7.1
p298
g30
sV7.6
p299
g30
sV7.7
p300
g30
sV7.5
p301
g30
sVnea
p302
g30
sVock
p303
g30
sVoca
p304
g30
sVBig
p305
g30
sVdo
p306
g30
sVde
p307
g30
sVX
g30
sVeme
p308
g30
sV4.4
p309
g30
sVbat
p310
g30
sVbar
p311
g30
sVbas
p312
g30
sVemo
p313
g30
sVemn
p314
g30
sV415
p315
g30
sVbad
p316
g30
sVems
p317
g30
sVban
p318
g30
sVbal
p319
g30
sVemy
p320
g30
sV.80
p321
g30
sVPet
p322
g30
sVnut
p323
g30
sVldt
p324
g30
sVnus
p325
g30
sVnum
p326
g30
sVnue
p327
g30
sViry
p328
g30
sVirs
p329
g30
sVirl
p330
g30
sVirm
p331
g30
sViro
p332
g30
sVmum
p333
g30
sV4.1
p334
g30
sVird
p335
g30
sVire
p336
g30
sV360
p337
g30
sVwe
p338
g30
sVome
p339
g30
sVwo
p340
g30
sVoms
p341
g30
sVwth
p342
g30
sV389
p343
g30
sVomy
p344
g30
sV$
g30
sVcos
p345
g30
sVuns
p346
g30
sVunt
p347
g30
sVhan
p348
g30
sVcow
p349
g30
sVcox
p350
g30
sVill
p351
g30
sVilm
p352
g30
sVilk
p353
g30
sVcoa
p354
g30
sVilt
p355
g30
sVcob
p356
g30
sVund
p357
g30
sVune
p358
g30
sVung
p359
g30
sVunk
p360
g30
sVcom
p361
g30
sVunn
p362
g30
sVily
p363
g30
sVETS
p364
g30
sVela
p365
g30
sVhad
p366
g30
sV20s
p367
g30
sV258
p368
g30
sV259
p369
g30
sV252
p370
g30
sV253
p371
g30
sV250
p372
g30
sV251
p373
g30
sV256
p374
g30
sV257
p375
g30
sV254
p376
g30
sVana
p377
g30
sVC.
p378
g30
sVhay
p379
g30
sVsal
p380
g30
sV107
p381
g30
sVTVJ
p382
g30
sVfry
p383
g30
sVCru
p384
g30
sV168
p385
g30
sV169
p386
g30
sV164
p387
g30
sV165
p388
g30
sV166
p389
g30
sV167
p390
g30
sV160
p391
g30
sV161
p392
g30
sV162
p393
g30
sV163
p394
g30
sVgns
p395
g30
sVCo
p396
g30
sVsly
p397
g30
sVait
p398
g30
sVair
p399
g30
sVaim
p400
g30
sVail
p401
g30
sVgna
p402
g30
sVaii
p403
g30
sVgne
p404
g30
sVaid
p405
g30
sVaif
p406
g30
sVaia
p407
g30
sV072
p408
g30
sV...
p409
g30
sVis
p410
g30
sVit
p411
g30
sVLOT
p412
g30
sVin
p413
g30
sVif
p414
g30
sV*?*
p415
g30
sVdha
p416
g30
sVep.
p417
g30
sVOf
p418
g30
sV80s
p419
g30
sVnio
p420
g30
sVnil
p421
g30
sVnic
p422
g30
sVnia
p423
g30
sVnie
p424
g30
sV.38
p425
g30
sV.39
p426
g30
sVnix
p427
g30
sVOil
p428
g30
sVkio
p429
g30
sVkin
p430
g30
sV.30
p431
g30
sVnis
p432
g30
sVkia
p433
g30
sVbia
p434
g30
sV.34
p435
g30
sV.35
p436
g30
sVnit
p437
g30
sV.37
p438
g30
sVthy
p439
g30
sVept
p440
g30
sVths
p441
g30
sVeps
p442
g30
sVthm
p443
g30
sVeph
p444
g30
sVthe
p445
g30
sV800
p446
g30
sV805
p447
g30
sVepa
p448
g30
sVyen
p449
g30
sVyee
p450
g30
sVyed
p451
g30
sVvia
p452
g30
sVyes
p453
g30
sVyer
p454
g30
sVyet
p455
g30
sVhai
p456
g30
sVhal
p457
g30
sVham
p458
g30
sVell
p459
g30
sVelm
p460
g30
sVDRs
p461
g30
sVvie
p462
g30
sVelf
p463
g30
sVeld
p464
g30
sVION
p465
g30
sVely
p466
g30
sVels
p467
g30
sVelp
p468
g30
sVhas
p469
g30
sVhat
p470
g30
sVelt
p471
g30
sVops
p472
g30
sV.45
p473
g30
sVopy
p474
g30
sVope
p475
g30
sVopf
p476
g30
sV.47
p477
g30
sVrns
p478
g30
sVel.
p479
g30
sV59
p480
g30
sV58
p481
g30
sV55
p482
g30
sV57
p483
g30
sV51
p484
g30
sV50
p485
g30
sV53
p486
g30
sV52
p487
g30
sV537
p488
g30
sVGa.
p489
g30
sV534
p490
g30
sV-36
p491
g30
sVArk
p492
g30
sVS.
p493
g30
sVola
p494
g30
sVold
p495
g30
sVole
p496
g30
sVoll
p497
g30
sVuys
p498
g30
sV-32
p499
g30
sVols
p500
g30
sVolt
p501
g30
sVees
p502
g30
sVN.Y
p503
g30
sVoly
p504
g30
sVeer
p505
g30
sVPTA
p506
g30
sVick
p507
g30
sVich
p508
g30
sVico
p509
g30
sVump
p510
g30
sVfor
p511
g30
sVica
p512
g30
sVice
p513
g30
sVLeo
p514
g30
sVume
p515
g30
sVicy
p516
g30
sVcne
p517
g30
sVuma
p518
g30
sVics
p519
g30
sV422
p520
g30
sVumi
p521
g30
sVHe
p522
g30
sVply
p523
g30
sVple
p524
g30
sVrny
p525
g30
sVpla
p526
g30
sVeye
p527
g30
sVobo
p528
g30
sVobe
p529
g30
sVH.
p530
g30
sVown
p531
g30
sVobs
p532
g30
sVFed
p533
g30
sVmbo
p534
g30
sVahn
p535
g30
sVahl
p536
g30
sVson
p537
g30
sVpps
p538
g30
sVFew
p539
g30
sVoin
p540
g30
sVsor
p541
g30
sVppy
p542
g30
sVmbs
p543
g30
sVtem
p544
g30
sVwan
p545
g30
sVart
p546
g30
sVgit
p547
g30
sVwai
p548
g30
sVwab
p549
g30
sVNBI
p550
g30
sVgic
p551
g30
sVawa
p552
g30
sVgia
p553
g30
sVNBC
p554
g30
sVgin
p555
g30
sVTES
p556
g30
sVwas
p557
g30
sVwar
p558
g30
sVwap
p559
g30
sVcke
p560
g30
sVS.A
p561
g30
sVN.C
p562
g30
sVolm
p563
g30
sV229
p564
g30
sV228
p565
g30
sV227
p566
g30
sV226
p567
g30
sV225
p568
g30
sV224
p569
g30
sV223
p570
g30
sV222
p571
g30
sV221
p572
g30
sV220
p573
g30
sVaza
p574
g30
sVaze
p575
g30
sVS.p
p576
g30
sVVos
p577
g30
sV151
p578
g30
sVSir
p579
g30
sV153
p580
g30
sV152
p581
g30
sV155
p582
g30
sV154
p583
g30
sV157
p584
g30
sVSit
p585
g30
sV159
p586
g30
sV158
p587
g30
sVnne
p588
g30
sVTWO
p589
g30
sV''
p590
g30
sVnny
p591
g30
sVno
p592
g30
sVtip
p593
g30
sVtil
p594
g30
sVtim
p595
g30
sVtin
p596
g30
sVtie
p597
g30
sVtia
p598
g30
sVtic
p599
g30
sVnn.
p600
g30
sV's
p601
g30
sVput
p602
g30
sV'd
p603
g30
sVESB
p604
g30
sVSCI
p605
g30
sV'm
p606
g30
sVLee
p607
g30
sV'S
p608
g30
sVums
p609
g30
sVren
p610
g30
sV.B.
p611
g30
sVlly
p612
g30
sVrol
p613
g30
sVrom
p614
g30
sVron
p615
g30
sVlls
p616
g30
sVoss
p617
g30
sVost
p618
g30
sVrof
p619
g30
sVrox
p620
g30
sVroy
p621
g30
sVlli
p622
g30
sVllo
p623
g30
sV.08
p624
g30
sVrop
p625
g30
sV.04
p626
g30
sVror
p627
g30
sVros
p628
g30
sVose
p629
g30
sV.00
p630
g30
sVlle
p631
g30
sVrow
p632
g30
sVver
p633
g30
sVves
p634
g30
sVDan
p635
g30
sVvey
p636
g30
sVEOs
p637
g30
sV0
g30
sVved
p638
g30
sVven
p639
g30
sVvel
p640
g30
sVert
p641
g30
sVll.
p642
g30
sVdio
p643
g30
sVgue
p644
g30
sVdid
p645
g30
sVdie
p646
g30
sVdia
p647
g30
sVgus
p648
g30
sVgut
p649
g30
sVdit
p650
g30
sVguy
p651
g30
sVict
p652
g30
sVdis
p653
g30
sVRey
p654
g30
sVhta
p655
g30
sVbe
p656
g30
sVM.
p657
g30
sVhth
p658
g30
sVhts
p659
g30
sVLt.
p660
g30
sVRed
p661
g30
sVPCs
p662
g30
sVoes
p663
g30
sVMo
p664
g30
sVrud
p665
g30
sVLtd
p666
g30
sVMy
p667
g30
sVbox
p668
g30
sVboy
p669
g30
sVarc
p670
g30
sVbor
p671
g30
sVbot
p672
g30
sVINS
p673
g30
sVbol
p674
g30
sVbon
p675
g30
sVINE
p676
g30
sVING
p677
g30
sVeks
p678
g30
sVngo
p679
g30
sVDON
p680
g30
sVips
p681
g30
sV1st
p682
g30
sVDOR
p683
g30
sVays
p684
g30
sV755
p685
g30
sVood
p686
g30
sV``
p687
g30
sVoof
p688
g30
sVF
g30
sVoom
p689
g30
sVool
p690
g30
sVoon
p691
g30
sVook
p692
g30
sVoot
p693
g30
sVoop
p694
g30
sVoos
p695
g30
sVoor
p696
g30
sVBew
p697
g30
sVfly
p698
g30
sVcay
p699
g30
sVuly
p700
g30
sVcar
p701
g30
sVulp
p702
g30
sVibe
p703
g30
sVult
p704
g30
sVulu
p705
g30
sVulk
p706
g30
sVcan
p707
g30
sVull
p708
g30
sVcal
p709
g30
sVula
p710
g30
sVulf
p711
g30
sVuld
p712
g30
sVule
p713
g30
sVkyo
p714
g30
sVERS
p715
g30
sVids
p716
g30
sV238
p717
g30
sV239
p718
g30
sVERC
p719
g30
sV234
p720
g30
sV235
p721
g30
sV236
p722
g30
sV237
p723
g30
sV230
p724
g30
sV231
p725
g30
sV232
p726
g30
sV233
p727
g30
sVWho
p728
g30
sV1
g30
sVnyl
p729
g30
sVild
p730
g30
sVWhy
p731
g30
sV146
p732
g30
sVmap
p733
g30
sVmas
p734
g30
sV145
p735
g30
sV142
p736
g30
sV143
p737
g30
sV140
p738
g30
sV141
p739
g30
sVmay
p740
g30
sVuse
p741
g30
sV148
p742
g30
sV149
p743
g30
sVmal
p744
g30
sVman
p745
g30
sVght
p746
g30
sVNCH
p747
g30
sVso
p748
g30
sVghi
p749
g30
sVtty
p750
g30
sVlse
p751
g30
sVJay
p752
g30
sVtts
p753
g30
sVlso
p754
g30
sVUse
p755
g30
sVtta
p756
g30
sVtte
p757
g30
sVgth
p758
g30
sVWTD
p759
g30
sV.C.
p760
g30
sV933
p761
g30
sVhor
p762
g30
sV934
p763
g30
sV.12
p764
g30
sVnon
p765
g30
sVews
p766
g30
sV.14
p767
g30
sV.15
p768
g30
sV.18
p769
g30
sV.19
p770
g30
sVNEC
p771
g30
sVShe
p772
g30
sVONS
p773
g30
sVnot
p774
g30
sVR.
p775
g30
sVnow
p776
g30
sVnor
p777
g30
sV47
p778
g30
sV821
p779
g30
sVbly
p780
g30
sVecs
p781
g30
sVJoe
p782
g30
sVKey
p783
g30
sVble
p784
g30
sVshe
p785
g30
sVG
g30
sVory
p786
g30
sVrle
p787
g30
sVrld
p788
g30
sVort
p789
g30
sVoru
p790
g30
sVrla
p791
g30
sVors
p792
g30
sVorp
p793
g30
sVorn
p794
g30
sVorm
p795
g30
sVrly
p796
g30
sVork
p797
g30
sVori
p798
g30
sVord
p799
g30
sVore
p800
g30
sVora
p801
g30
sVoni
p802
g30
sVonn
p803
g30
sV625
p804
g30
sVATA
p805
g30
sVona
p806
g30
sVong
p807
g30
sVond
p808
g30
sVone
p809
g30
sVonx
p810
g30
sVony
p811
g30
sVons
p812
g30
sVont
p813
g30
sViam
p814
g30
sVial
p815
g30
sVian
p816
g30
sViak
p817
g30
sViad
p818
g30
sV2
g30
sVSEC
p819
g30
sVuki
p820
g30
sVuke
p821
g30
sVias
p822
g30
sViar
p823
g30
sVa
g30
sVIME
p824
g30
sVway
p825
g30
sVhum
p826
g30
sV-57
p827
g30
sVhut
p828
g30
sVFRR
p829
g30
sVhur
p830
g30
sVhus
p831
g30
sV11
p832
g30
sV10
p833
g30
sV13
p834
g30
sV12
p835
g30
sV15
p836
g30
sV14
p837
g30
sV17
p838
g30
sV16
p839
g30
sV19
p840
g30
sV18
p841
g30
sVand
p842
g30
sVane
p843
g30
sVsai
p844
g30
sVang
p845
g30
sVsan
p846
g30
sVanc
p847
g30
sVano
p848
g30
sVani
p849
g30
sVank
p850
g30
sVant
p851
g30
sVsay
p852
g30
sVF.
p853
g30
sVans
p854
g30
sVsas
p855
g30
sVsaw
p856
g30
sVany
p857
g30
sVDo
p858
g30
sVPhi
p859
g30
sVzon
p860
g30
sVzor
p861
g30
sVDu
p862
g30
sV201
p863
g30
sV200
p864
g30
sV203
p865
g30
sV202
p866
g30
sV205
p867
g30
sV204
p868
g30
sV207
p869
g30
sV206
p870
g30
sV208
p871
g30
sVan.
p872
g30
sVuye
p873
g30
sVADY
p874
g30
sVGOP
p875
g30
sVD.
p876
g30
sVMs.
p877
g30
sVmre
p878
g30
sVnly
p879
g30
sVss.
p880
g30
sVWe
p881
g30
sV.R.
p882
g30
sVWa
p883
g30
sVGHS
p884
g30
sVWu
p885
g30
sVges
p886
g30
sVger
p887
g30
sVssy
p888
g30
sVget
p889
g30
sVMd.
p890
g30
sVsso
p891
g30
sVged
p892
g30
sVsse
p893
g30
sVHAS
p894
g30
sVHAT
p895
g30
sVgen
p896
g30
sVgel
p897
g30
sVW.
p898
g30
sV929
p899
g30
sV925
p900
g30
sVrms
p901
g30
sV.65
p902
g30
sV.64
p903
g30
sV.62
p904
g30
sV.61
p905
g30
sV.60
p906
g30
sVuto
p907
g30
sVrma
p908
g30
sVlne
p909
g30
sVitt
p910
g30
sV3
g30
sVeb.
p911
g30
sV-99
p912
g30
sV-98
p913
g30
sV-92
p914
g30
sV-91
p915
g30
sV-90
p916
g30
sV-93
p917
g30
sVtus
p918
g30
sV-95
p919
g30
sV-94
p920
g30
sV-97
p921
g30
sV-96
p922
g30
sVtum
p923
g30
sVtue
p924
g30
sV787
p925
g30
sV150
p926
g30
sVpot
p927
g30
sVPER
p928
g30
sV60
p929
g30
sV61
p930
g30
sV62
p931
g30
sV63
p932
g30
sV64
p933
g30
sV65
p934
g30
sV68
p935
g30
sV69
p936
g30
sVILY
p937
g30
sVBuy
p938
g30
sVkes
p939
g30
sV156
p940
g30
sVBut
p941
g30
sV500
p942
g30
sV501
p943
g30
sV637
p944
g30
sVyze
p945
g30
sVWAR
p946
g30
sV-73
p947
g30
sV-72
p948
g30
sV-71
p949
g30
sV-70
p950
g30
sV-77
p951
g30
sV-76
p952
g30
sV-75
p953
g30
sV-74
p954
g30
sV-79
p955
g30
sVeiz
p956
g30
sVn't
p957
g30
sVeil
p958
g30
sVein
p959
g30
sVive
p960
g30
sVOak
p961
g30
sVuxe
p962
g30
sVpar
p963
g30
sVpay
p964
g30
sVNSE
p965
g30
sVpac
p966
g30
sVI.
p967
g30
sVpal
p968
g30
sVpan
p969
g30
sVIRY
p970
g30
sVoil
p971
g30
sVI
g30
sVoid
p972
g30
sVIT
p973
g30
sVII
p974
g30
sVoit
p975
g30
sVois
p976
g30
sVsed
p977
g30
sVIs
p978
g30
sVIt
p979
g30
sVTV
p980
g30
sVcco
p981
g30
sVuji
p982
g30
sVIn
p983
g30
sVoke
p984
g30
sVSDI
p985
g30
sVIf
p986
g30
sV216
p987
g30
sV217
p988
g30
sV*-8
p989
g30
sV*-9
p990
g30
sV212
p991
g30
sV213
p992
g30
sV210
p993
g30
sV211
p994
g30
sV*-2
p995
g30
sV*-3
p996
g30
sVBOR
p997
g30
sV*-1
p998
g30
sV*-6
p999
g30
sV*-7
p1000
g30
sV*-4
p1001
g30
sV*-5
p1002
g30
sVA.
p1003
g30
sV4
g30
sVILL
p1004
g30
sVami
p1005
g30
sVamn
p1006
g30
sVama
p1007
g30
sVame
p1008
g30
sVpse
p1009
g30
sVmon
p1010
g30
sVamp
p1011
g30
sVams
p1012
g30
sVamt
p1013
g30
sVpon
p1014
g30
sV.S.
p1015
g30
sVLos
p1016
g30
sV've
p1017
g30
sVtd.
p1018
g30
sV.A.
p1019
g30
sVDr.
p1020
g30
sVNew
p1021
g30
sVNet
p1022
g30
sVked
p1023
g30
sVddy
p1024
g30
sVdds
p1025
g30
sV917
p1026
g30
sVuch
p1027
g30
sV.74
p1028
g30
sV.75
p1029
g30
sV.70
p1030
g30
sV.72
p1031
g30
sV.73
p1032
g30
sV.78
p1033
g30
sV.79
p1034
g30
sV8.4
p1035
g30
sV847
p1036
g30
sVon
p1037
g30
sV841
p1038
g30
sVack
p1039
g30
sVof
p1040
g30
sVach
p1041
g30
sVact
p1042
g30
sVacy
p1043
g30
sVor
p1044
g30
sV-88
p1045
g30
sV-89
p1046
g30
sV-86
p1047
g30
sV-87
p1048
g30
sV-84
p1049
g30
sV-85
p1050
g30
sV-82
p1051
g30
sV-83
p1052
g30
sV-80
p1053
g30
sV-81
p1054
g30
sVODY
p1055
g30
sVhev
p1056
g30
sVNL
p1057
g30
sVlog
p1058
g30
sVher
p1059
g30
sVhes
p1060
g30
sVlon
p1061
g30
sVhey
p1062
g30
sVlor
p1063
g30
sVhee
p1064
g30
sVlop
p1065
g30
sVlow
p1066
g30
sVlot
p1067
g30
sVhel
p1068
g30
sVhem
p1069
g30
sVhen
p1070
g30
sVloy
p1071
g30
sVUES
p1072
g30
sV\u005c/2
p1073
g30
sVago
p1074
g30
sV750
p1075
g30
sV\u005c/4
p1076
g30
sV\u005c/8
p1077
g30
sVets
p1078
g30
sVELD
p1079
g30
sVRDC
p1080
g30
sVwal
p1081
g30
sVLEA
p1082
g30
sVlo.
p1083
g30
sVLES
p1084
g30
sV605
p1085
g30
sVohn
p1086
g30
sVoho
p1087
g30
sV600
p1088
g30
sVrve
p1089
g30
sVai
p1090
g30
sV609
p1091
g30
sVoha
p1092
g30
sVan
p1093
g30
sVHow
p1094
g30
sVHot
p1095
g30
sVUST
p1096
g30
sVuit
p1097
g30
sViwa
p1098
g30
sVAn
p1099
g30
sVUSX
p1100
g30
sV-60
p1101
g30
sV-61
p1102
g30
sV-62
p1103
g30
sV-63
p1104
g30
sV-64
p1105
g30
sV-65
p1106
g30
sV-66
p1107
g30
sV-67
p1108
g30
sV-68
p1109
g30
sV-69
p1110
g30
sV4.9
p1111
g30
sV4.8
p1112
g30
sVige
p1113
g30
sV5
g30
sVign
p1114
g30
sVyou
p1115
g30
sVLaw
p1116
g30
sVyor
p1117
g30
sVigh
p1118
g30
sV60s
p1119
g30
sV0th
p1120
g30
sVN.J
p1121
g30
sVCNB
p1122
g30
sVLa.
p1123
g30
sVUS$
p1124
g30
sV3-4
p1125
g30
sV903
p1126
g30
sVsco
p1127
g30
sValk
p1128
g30
sVSIT
p1129
g30
sValf
p1130
g30
sVald
p1131
g30
sVmns
p1132
g30
sVala
p1133
g30
sVmni
p1134
g30
sVSIA
p1135
g30
sVpty
p1136
g30
sValy
p1137
g30
sValt
p1138
g30
sVpts
p1139
g30
sVals
p1140
g30
sVto
p1141
g30
sVpt.
p1142
g30
sVVa.
p1143
g30
sVfar
p1144
g30
sVfat
p1145
g30
sVmpt
p1146
g30
sVeir
p1147
g30
sVfan
p1148
g30
sVmps
p1149
g30
sVgot
p1150
g30
sVeit
p1151
g30
sV`
g30
sV--
p1152
g30
sVCDC
p1153
g30
sVroz
p1154
g30
sV-78
p1155
g30
sV199
p1156
g30
sV198
p1157
g30
sVten
p1158
g30
sV195
p1159
g30
sVtea
p1160
g30
sV197
p1161
g30
sV196
p1162
g30
sV191
p1163
g30
sVtee
p1164
g30
sV193
p1165
g30
sV192
p1166
g30
sVtex
p1167
g30
sVosa
p1168
g30
sVtep
p1169
g30
sVter
p1170
g30
sVtes
p1171
g30
sV.07
p1172
g30
sV90s
p1173
g30
sVsue
p1174
g30
sV.P.
p1175
g30
sVabe
p1176
g30
sV.01
p1177
g30
sVsum
p1178
g30
sVsui
p1179
g30
sVabs
p1180
g30
sVsus
p1181
g30
sV.03
p1182
g30
sVxon
p1183
g30
sVaby
p1184
g30
sV/16
p1185
g30
sVnti
p1186
g30
sV900
p1187
g30
sV901
p1188
g30
sV244
p1189
g30
sV50s
p1190
g30
sVyst
p1191
g30
sV.48
p1192
g30
sVToy
p1193
g30
sVnto
p1194
g30
sVvid
p1195
g30
sVrks
p1196
g30
sV.40
p1197
g30
sV.43
p1198
g30
sV.42
p1199
g30
sVvin
p1200
g30
sV.44
p1201
g30
sVvil
p1202
g30
sVvis
p1203
g30
sVToo
p1204
g30
sVTom
p1205
g30
sVOUs
p1206
g30
sVRED
p1207
g30
sVREE
p1208
g30
sV850
p1209
g30
sVtwo
p1210
g30
sVeys
p1211
g30
sVasm
p1212
g30
sV6
g30
sVVER
p1213
g30
sVLTV
p1214
g30
sVSi
p1215
g30
sVSo
p1216
g30
sVdex
p1217
g30
sVkle
p1218
g30
sVder
p1219
g30
sVdes
p1220
g30
sVdet
p1221
g30
sVdel
p1222
g30
sVden
p1223
g30
sVdeo
p1224
g30
sVdea
p1225
g30
sVded
p1226
g30
sVkly
p1227
g30
sVInc
p1228
g30
sVIBM
p1229
g30
sVIBC
p1230
g30
sVCAT
p1231
g30
sVati
p1232
g30
sVryn
p1233
g30
sV5.1
p1234
g30
sV5.3
p1235
g30
sV5.4
p1236
g30
sV5.5
p1237
g30
sV5.6
p1238
g30
sV5.7
p1239
g30
sV5.8
p1240
g30
sV5.9
p1241
g30
sVoys
p1242
g30
sVoyd
p1243
g30
sVDon
p1244
g30
sVDom
p1245
g30
sV614
p1246
g30
sVWCA
p1247
g30
sVDow
p1248
g30
sV-55
p1249
g30
sV-54
p1250
g30
sVegy
p1251
g30
sV-56
p1252
g30
sV-51
p1253
g30
sV-50
p1254
g30
sV-53
p1255
g30
sV-52
p1256
g30
sV-59
p1257
g30
sV-58
p1258
g30
sVlhi
p1259
g30
sVRST
p1260
g30
sVega
p1261
g30
sVegg
p1262
g30
sVege
p1263
g30
sVito
p1264
g30
sVith
p1265
g30
sViti
p1266
g30
sVite
p1267
g30
sVffs
p1268
g30
sVita
p1269
g30
sVitz
p1270
g30
sVity
p1271
g30
sVffe
p1272
g30
sV490
p1273
g30
sVits
p1274
g30
sV24
p1275
g30
sV25
p1276
g30
sV26
p1277
g30
sV27
p1278
g30
sV20
p1279
g30
sV21
p1280
g30
sV22
p1281
g30
sV23
p1282
g30
sV28
p1283
g30
sV29
p1284
g30
sVif.
p1285
g30
sVoks
p1286
g30
sVced
p1287
g30
sVBar
p1288
g30
sVces
p1289
g30
sVcer
p1290
g30
sVT&T
p1291
g30
sVURY
p1292
g30
sVift
p1293
g30
sVRae
p1294
g30
sVyne
p1295
g30
sVify
p1296
g30
sVogy
p1297
g30
sVife
p1298
g30
sViff
p1299
g30
sVs-a
p1300
g30
sVRay
p1301
g30
sVNGE
p1302
g30
sVEnd
p1303
g30
sVIX
p1304
g30
sVgun
p1305
g30
sV176
p1306
g30
sVIES
p1307
g30
sVfts
p1308
g30
sVE.
p1309
g30
sVize
p1310
g30
sVfty
p1311
g30
sVizo
p1312
g30
sV7
g30
sVfth
p1313
g30
sVass
p1314
g30
sVIRS
p1315
g30
sVasu
p1316
g30
sVast
p1317
g30
sVasy
p1318
g30
sVsby
p1319
g30
sVkok
p1320
g30
sVpub
p1321
g30
sVSHA
p1322
g30
sVase
p1323
g30
sVmme
p1324
g30
sVash
p1325
g30
sVmma
p1326
g30
sVpur
p1327
g30
sVpus
p1328
g30
sVwly
p1329
g30
sV971
p1330
g30
sVEd
p1331
g30
sVTBS
p1332
g30
sViz.
p1333
g30
sVCES
p1334
g30
sVody
p1335
g30
sVnc.
p1336
g30
sV977
p1337
g30
sV976
p1338
g30
sV975
p1339
g30
sV973
p1340
g30
sV972
p1341
g30
sVjet
p1342
g30
sV970
p1343
g30
sVWPP
p1344
g30
sV979
p1345
g30
sV182
p1346
g30
sV183
p1347
g30
sV180
p1348
g30
sV181
p1349
g30
sV186
p1350
g30
sV187
p1351
g30
sV184
p1352
g30
sV185
p1353
g30
sVxit
p1354
g30
sV188
p1355
g30
sV189
p1356
g30
sVtoo
p1357
g30
sVncy
p1358
g30
sV.56
p1359
g30
sV.57
p1360
g30
sVtom
p1361
g30
sV.53
p1362
g30
sV.50
p1363
g30
sVnch
p1364
g30
sVnce
p1365
g30
sVste
p1366
g30
sVb
g30
sVsta
p1367
g30
sVaam
p1368
g30
sVsts
p1369
g30
sVsty
p1370
g30
sVOT*
p1371
g30
sVGod
p1372
g30
sVelo
p1373
g30
sVlid
p1374
g30
sVlie
p1375
g30
sVlif
p1376
g30
sVlia
p1377
g30
sVlic
p1378
g30
sVodd
p1379
g30
sVlin
p1380
g30
sVlio
p1381
g30
sVeft
p1382
g30
sVlit
p1383
g30
sVRB-
p1384
g30
sVlip
p1385
g30
sVlis
p1386
g30
sV777
p1387
g30
sV.55
p1388
g30
sV77
p1389
g30
sV76
p1390
g30
sV75
p1391
g30
sV73
p1392
g30
sV72
p1393
g30
sV71
p1394
g30
sV70
p1395
g30
sVThe
p1396
g30
sVRBC
p1397
g30
sV78
p1398
g30
sV*U*
p1399
g30
sVOTC
p1400
g30
sVext
p1401
g30
sVexy
p1402
g30
sVugh
p1403
g30
sV663
p1404
g30
sV214
p1405
g30
sVuge
p1406
g30
sV215
p1407
g30
sVrts
p1408
g30
sVugs
p1409
g30
sVrty
p1410
g30
sV-48
p1411
g30
sV-49
p1412
g30
sV-42
p1413
g30
sV-43
p1414
g30
sV-40
p1415
g30
sVier
p1416
g30
sVieu
p1417
g30
sViet
p1418
g30
sVJr
p1419
g30
sV-45
p1420
g30
sViel
p1421
g30
sVien
p1422
g30
sV8
g30
sVieb
p1423
g30
sVied
p1424
g30
sVief
p1425
g30
sVhip
p1426
g30
sVIAL
p1427
g30
sVhis
p1428
g30
sVhit
p1429
g30
sVug.
p1430
g30
sVhia
p1431
g30
sVhic
p1432
g30
sVhid
p1433
g30
sV218
p1434
g30
sV219
p1435
g30
sV;
g30
sVhin
p1436
g30
sVhio
p1437
g30
sVcry
p1438
g30
sVJ.
p1439
g30
sVcre
p1440
g30
sVcro
p1441
g30
sVsew
p1442
g30
sVset
p1443
g30
sVe-A
p1444
g30
sVser
p1445
g30
sVFor
p1446
g30
sVary
p1447
g30
sVxes
p1448
g30
sVsey
p1449
g30
sVsex
p1450
g30
sVara
p1451
g30
sVsee
p1452
g30
sV2.8
p1453
g30
sVard
p1454
g30
sVare
p1455
g30
sV2.3
p1456
g30
sVsen
p1457
g30
sV2.1
p1458
g30
sVsel
p1459
g30
sV2.7
p1460
g30
sV2.6
p1461
g30
sVarn
p1462
g30
sV2.4
p1463
g30
sV#
g30
sVwow
p1464
g30
sVwon
p1465
g30
sVGED
p1466
g30
sVnze
p1467
g30
sVika
p1468
g30
sVlen
p1469
g30
sVike
p1470
g30
sVDDB
p1471
g30
sV444
p1472
g30
sVads
p1473
g30
sVAND
p1474
g30
sVler
p1475
g30
sVANK
p1476
g30
sVANT
p1477
g30
sVYet
p1478
g30
sVrad
p1479
g30
sVley
p1480
g30
sVWar
p1481
g30
sVdum
p1482
g30
sVduo
p1483
g30
sVduc
p1484
g30
sVdue
p1485
g30
sVlby
p1486
g30
sVxan
p1487
g30
sVdup
p1488
g30
sV.V.
p1489
g30
sVdus
p1490
g30
sV.D.
p1491
g30
sVada
p1492
g30
sVgas
p1493
g30
sVgar
p1494
g30
sVgan
p1495
g30
sVnry
p1496
g30
sVgal
p1497
g30
sVado
p1498
g30
sVNDS
p1499
g30
sV965
p1500
g30
sV966
p1501
g30
sV967
p1502
g30
sVOld
p1503
g30
sV961
p1504
g30
sV963
p1505
g30
sV968
p1506
g30
sVrat
p1507
g30
sV32
p1508
g30
sVful
p1509
g30
sV37
p1510
g30
sVvon
p1511
g30
sVTip
p1512
g30
sVris
p1513
g30
sVrip
p1514
g30
sV00s
p1515
g30
sVrio
p1516
g30
sVril
p1517
g30
sVrim
p1518
g30
sVvor
p1519
g30
sVrie
p1520
g30
sVrib
p1521
g30
sVvoy
p1522
g30
sVCo.
p1523
g30
sVFAX
p1524
g30
sVewn
p1525
g30
sV875
p1526
g30
sVyal
p1527
g30
sV9
g30
sVdge
p1528
g30
sV898
p1529
g30
sVIll
p1530
g30
sV000
p1531
g30
sV005
p1532
g30
sV004
p1533
g30
sV009
p1534
g30
sV.J.
p1535
g30
sVO.
p1536
g30
sVefs
p1537
g30
sVlde
p1538
g30
sV762
p1539
g30
sVOAN
p1540
g30
sVldi
p1541
g30
sV767
p1542
g30
sVlds
p1543
g30
sVmob
p1544
g30
sVad
p1545
g30
sV.85
p1546
g30
sV.87
p1547
g30
sVcut
p1548
g30
sVcus
p1549
g30
sVcur
p1550
g30
sV.82
p1551
g30
sVrgy
p1552
g30
sV.88
p1553
g30
sVcue
p1554
g30
sVrge
p1555
g30
sVaps
p1556
g30
sVrgh
p1557
g30
sVwim
p1558
g30
sVrgo
p1559
g30
sVbin
p1560
g30
sVOn
p1561
g30
sVOh
p1562
g30
sVbig
p1563
g30
sVbid
p1564
g30
sVbie
p1565
g30
sV672
p1566
g30
sVAir
p1567
g30
sVbit
p1568
g30
sVOr
p1569
g30
sVON
p1570
g30
sVOK
p1571
g30
sV-39
p1572
g30
sV-38
p1573
g30
sV-37
p1574
g30
sVOF
p1575
g30
sV-35
p1576
g30
sV-34
p1577
g30
sV-33
p1578
g30
sVeep
p1579
g30
sV-31
p1580
g30
sV-30
p1581
g30
sVeem
p1582
g30
sVeel
p1583
g30
sVeen
p1584
g30
sVeek
p1585
g30
sVeed
p1586
g30
sV30s
p1587
g30
sV3.6
p1588
g30
sV3.7
p1589
g30
sV3.4
p1590
g30
sV3.5
p1591
g30
sV3.2
p1592
g30
sV3.3
p1593
g30
sV3.1
p1594
g30
sV3.8
p1595
g30
sV3.9
p1596
g30
sVpet
p1597
g30
sVpep
p1598
g30
sV30U
p1599
g30
sVper
p1600
g30
sVpes
p1601
g30
sVpel
p1602
g30
sVpen
p1603
g30
sVpei
p1604
g30
sVped
p1605
g30
sV309
p1606
g30
sVrun
p1607
g30
sVrum
p1608
g30
sV300
p1609
g30
sV301
p1610
g30
sVrug
p1611
g30
sVuff
p1612
g30
sVrue
p1613
g30
sVBon
p1614
g30
sVoel
p1615
g30
sVrus
p1616
g30
sVBob
p1617
g30
sVby
p1618
g30
sVoed
p1619
g30
sVidt
p1620
g30
sV'86
p1621
g30
sVyle
p1622
g30
sVide
p1623
g30
sVida
p1624
g30
sV'82
p1625
g30
sVnse
p1626
g30
sVNEY
p1627
g30
sVNEW
p1628
g30
sVcho
p1629
g30
sVnst
p1630
g30
sVsad
p1631
g30
sVfew
p1632
g30
sVust
p1633
g30
sV983
p1634
g30
sVfer
p1635
g30
sV:
g30
sVwns
p1636
g30
sV984
p1637
g30
sVchy
p1638
g30
sVcia
p1639
g30
sVute
p1640
g30
sVuth
p1641
g30
sVup
p1642
g30
sVus
p1643
g30
sVcil
p1644
g30
sVcis
p1645
g30
sVuts
p1646
g30
sV're
p1647
g30
sVcit
p1648
g30
sVzhi
p1649
g30
sV.W.
p1650
g30
sVuty
p1651
g30
sVNAL
p1652
g30
sVkup
p1653
g30
sVTo
p1654
g30
sVeze
p1655
g30
sVlyn
p1656
g30
sVas
p1657
g30
sV%
g30
sVMay
p1658
g30
sV953
p1659
g30
sV955
p1660
g30
sVnal
p1661
g30
sV956
p1662
g30
sVnar
p1663
g30
sVTO
p1664
g30
sVMac
p1665
g30
sVMae
p1666
g30
sVgra
p1667
g30
sV620
p1668
g30
sVnay
p1669
g30
sVMan
p1670
g30
sVAG
p1671
g30
sVAN
p1672
g30
sVT.
p1673
g30
sVHHS
p1674
g30
sVAd
p1675
g30
sVage
p1676
g30
sVAl
p1677
g30
sVIts
p1678
g30
sVa-A
p1679
g30
sVAs
p1680
g30
sVAt
p1681
g30
sVags
p1682
g30
sVede
p1683
g30
sVJim
p1684
g30
sVeds
p1685
g30
sV017
p1686
g30
sVgo
p1687
g30
sV019
p1688
g30
sVedy
p1689
g30
sVKy.
p1690
g30
sVev.
p1691
g30
sV.K.
p1692
g30
sVUAL
p1693
g30
sVNot
p1694
g30
sVNow
p1695
g30
sVlks
p1696
g30
sVNor
p1697
g30
sV.06
p1698
g30
sVrth
p1699
g30
sVNo.
p1700
g30
sV-in
p1701
g30
sVtra
p1702
g30
sV.93
p1703
g30
sV.90
p1704
g30
sVeve
p1705
g30
sV.95
p1706
g30
sVtry
p1707
g30
sVuem
p1708
g30
sVuel
p1709
g30
sVued
p1710
g30
sVrre
p1711
g30
sVods
p1712
g30
sVrra
p1713
g30
sVCB-
p1714
g30
sVrry
p1715
g30
sVodo
p1716
g30
sVuet
p1717
g30
sVrrs
p1718
g30
sVode
p1719
g30
sVues
p1720
g30
sV-28
p1721
g30
sV-29
p1722
g30
sV-24
p1723
g30
sV-25
p1724
g30
sV-26
p1725
g30
sV-27
p1726
g30
sV-20
p1727
g30
sV-21
p1728
g30
sV-22
p1729
g30
sV-23
p1730
g30
sVyck
p1731
g30
sVct.
p1732
g30
sVlea
p1733
g30
sVled
p1734
g30
sVcam
p1735
g30
sV85
p1736
g30
sVlel
p1737
g30
sVlem
p1738
g30
sV445
p1739
g30
sVA-D
p1740
g30
sVFTC
p1741
g30
sVles
p1742
g30
sVlet
p1743
g30
sVlew
p1744
g30
sVlex
p1745
g30
sVIGN
p1746
g30
sVwin
p1747
g30
sVozy
p1748
g30
sV38
p1749
g30
sVrds
p1750
g30
sVcts
p1751
g30
sV33
p1752
g30
sVfle
p1753
g30
sV31
p1754
g30
sV30
p1755
g30
sVrdy
p1756
g30
sV36
p1757
g30
sV35
p1758
g30
sV34
p1759
g30
sVCBS
p1760
g30
sV645
p1761
g30
sV644
p1762
g30
sVies
p1763
g30
sVapy
p1764
g30
sV339
p1765
g30
sV-46
p1766
g30
sVapp
p1767
g30
sVapt
p1768
g30
sV-47
p1769
g30
sVaph
p1770
g30
sVwis
p1771
g30
sV-44
p1772
g30
sVapa
p1773
g30
sVape
p1774
g30
sVfed
p1775
g30
sVfee
p1776
g30
sVche
p1777
g30
sV&
g30
sVchi
p1778
g30
sVush
p1779
g30
sVzig
p1780
g30
sVfet
p1781
g30
sVchs
p1782
g30
sVuss
p1783
g30
sVzia
p1784
g30
sVzio
p1785
g30
sVzil
p1786
g30
sVfey
p1787
g30
sVtax
p1788
g30
sVS&P
p1789
g30
sV0.4
p1790
g30
sVS&L
p1791
g30
sV1th
p1792
g30
sVALL
p1793
g30
sVace
p1794
g30
sVch.
p1795
g30
sVric
p1796
g30
sVALT
p1797
g30
sVppa
p1798
g30
sVNTG
p1799
g30
sV0.9
p1800
g30
sV0.8
p1801
g30
sVtar
p1802
g30
sVtas
p1803
g30
sV0.1
p1804
g30
sV0.3
p1805
g30
sV0.2
p1806
g30
sV0.5
p1807
g30
sVtay
p1808
g30
sV0.7
p1809
g30
sV0.6
p1810
g30
sVtad
p1811
g30
sVMr.
p1812
g30
sVtag
p1813
g30
sVTON
p1814
g30
sVtal
p1815
g30
sVtan
p1816
g30
sVtah
p1817
g30
sVsis
p1818
g30
sV:30
p1819
g30
sVsit
p1820
g30
sVafe
p1821
g30
sVaff
p1822
g30
sVsix
p1823
g30
sVsic
p1824
g30
sVC$
p1825
g30
sVsia
p1826
g30
sVaft
p1827
g30
sVsin
p1828
g30
sVABA
p1829
g30
sVMrs
p1830
g30
sV948
p1831
g30
sVOne
p1832
g30
sV!
g30
sV133
p1833
g30
sV132
p1834
g30
sV131
p1835
g30
sV130
p1836
g30
sV137
p1837
g30
sV136
p1838
g30
sV135
p1839
g30
sV134
p1840
g30
sV139
p1841
g30
sV138
p1842
g30
sVeum
p1843
g30
sVle
p1844
g30
sVla
p1845
g30
sVeud
p1846
g30
sVRAL
p1847
g30
sVNo
p1848
g30
sVhim
p1849
g30
sVkie
p1850
g30
sVtsu
p1851
g30
sVeur
p1852
g30
sVdal
p1853
g30
sVdam
p1854
g30
sVdak
p1855
g30
sVsik
p1856
g30
sVdaq
p1857
g30
sVema
p1858
g30
sV029
p1859
g30
sVday
p1860
g30
sVSan
p1861
g30
sV.H.
p1862
g30
sVhly
p1863
g30
sV147
p1864
g30
sVec.
p1865
g30
sV700
p1866
g30
sV144
p1867
g30
sVoud
p1868
g30
sV88
p1869
g30
sV89
p1870
g30
sVous
p1871
g30
sVour
p1872
g30
sV80
p1873
g30
sVoup
p1874
g30
sV86
p1875
g30
sVmat
p1876
g30
sVrez
p1877
g30
sVrey
p1878
g30
sV'
g30
sVrer
p1879
g30
sVres
p1880
g30
sVrep
p1881
g30
sVrew
p1882
g30
sVret
p1883
g30
sVeet
p1884
g30
sVN.
p1885
g30
sVreo
p1886
g30
sVrel
p1887
g30
sVrea
p1888
g30
sVred
p1889
g30
sVree
p1890
g30
sVece
p1891
g30
sVeck
p1892
g30
sVech
p1893
g30
sV-11
p1894
g30
sV-10
p1895
g30
sV-13
p1896
g30
sV-12
p1897
g30
sVque
p1898
g30
sV-14
p1899
g30
sV-17
p1900
g30
sV-16
p1901
g30
sV-19
p1902
g30
sV-18
p1903
g30
sVaoh
p1904
g30
sVlts
p1905
g30
sVlty
p1906
g30
sVask
p1907
g30
sVre.
p1908
g30
sVlth
p1909
g30
sV458
p1910
g30
sVarp
p1911
g30
sVrs.
p1912
g30
sV*
g30
sV450
p1913
g30
sV453
p1914
g30
sVK.
p1915
g30
sV457
p1916
g30
sVars
p1917
g30
sVses
p1918
g30
sVhed
p1919
g30
sVlos
p1920
g30
sVASD
p1921
g30
sVrch
p1922
g30
sVuds
p1923
g30
sVrsh
p1924
g30
sVrse
p1925
g30
sV2-8
p1926
g30
sVudy
p1927
g30
sVogs
p1928
g30
sVehn
p1929
g30
sVogo
p1930
g30
sVuda
p1931
g30
sVrsy
p1932
g30
sV9.5
p1933
g30
sVrst
p1934
g30
sVudi
p1935
g30
sVOME
p1936
g30
sVITI
p1937
g30
sVbeg
p1938
g30
sVbed
p1939
g30
sVbey
p1940
g30
sVber
p1941
g30
sVbes
p1942
g30
sVybe
p1943
g30
sV1.5
p1944
g30
sV1.6
p1945
g30
sV1.7
p1946
g30
sVPat
p1947
g30
sV1.1
p1948
g30
sV1.2
p1949
g30
sV1.8
p1950
g30
sV1.9
p1951
g30
sVp.m
p1952
g30
sVari
p1953
g30
sVark
p1954
g30
sVRDS
p1955
g30
sVmin
p1956
g30
sVarl
p1957
g30
sVmic
p1958
g30
sVmid
p1959
g30
sVarm
p1960
g30
sV320
p1961
g30
sV321
p1962
g30
sV2.5
p1963
g30
sV328
p1964
g30
sVmit
p1965
g30
sVmut
p1966
g30
sVwho
p1967
g30
sVaws
p1968
g30
sVawn
p1969
g30
sVbel
p1970
g30
sVeaf
p1971
g30
sVwhy
p1972
g30
sVPa.
p1973
g30
sVurd
p1974
g30
sVure
p1975
g30
sVurf
p1976
g30
sVurg
p1977
g30
sVura
p1978
g30
sVurb
p1979
g30
sVurn
p1980
g30
sVMCA
p1981
g30
sVurt
p1982
g30
sVurp
p1983
g30
sVcks
p1984
g30
sVurs
p1985
g30
sVcky
p1986
g30
sVury
p1987
g30
sVIan
p1988
g30
sVnge
p1989
g30
sVngl
p1990
g30
sVLIC
p1991
g30
sVeat
p1992
g30
sVjan
p1993
g30
sVjam
p1994
g30
sVngs
p1995
g30
sVsh.
p1996
g30
sV994
p1997
g30
sV997
p1998
g30
sV996
p1999
g30
sV991
p2000
g30
sV990
p2001
g30
sV993
p2002
g30
sV992
p2003
g30
sV999
p2004
g30
sV120
p2005
g30
sV121
p2006
g30
sV122
p2007
g30
sV123
p2008
g30
sV124
p2009
g30
sV125
p2010
g30
sV126
p2011
g30
sV127
p2012
g30
sV128
p2013
g30
sV129
p2014
g30
sVTHE
p2015
g30
sVNIH
p2016
g30
sVshy
p2017
g30
sVncs
p2018
g30
sVsha
p2019
g30
sVMo.
p2020
g30
sVshi
p2021
g30
sVael
p2022
g30
sVRAs
p2023
g30
sVbts
p2024
g30
sVSr.
p2025
g30
sVoma
p2026
g30
sVebt
p2027
g30
sVPa
p2028
g30
sVeby
p2029
g30
sVPS
p2030
g30
sVlus
p2031
g30
sV.I.
p2032
g30
sVdle
p2033
g30
sVlux
p2034
g30
sVPC
p2035
g30
sVlub
p2036
g30
sVlue
p2037
g30
sVdly
p2038
g30
sVlum
p2039
g30
sVken
p2040
g30
sVjor
p2041
g30
sVkel
p2042
g30
sVjoy
p2043
g30
sVkee
p2044
g30
sVEFS
p2045
g30
sVjob
p2046
g30
sVkey
p2047
g30
sVket
p2048
g30
sVP.
p2049
g30
sVker
p2050
g30
sV380
p2051
g30
sVett
p2052
g30
sVetz
p2053
g30
sVtly
p2054
g30
sVety
p2055
g30
sVeta
p2056
g30
sVtle
p2057
g30
sVete
p2058
g30
sVeth
p2059
g30
sVeto
p2060
g30
sVuct
p2061
g30
sVHer
p2062
g30
sVca
p2063
g30
sV570
p2064
g30
sVrva
p2065
g30
sV575
p2066
g30
sV388
p2067
g30
sVuce
p2068
g30
sVuck
p2069
g30
sVrpo
p2070
g30
sVuid
p2071
g30
sV8.3
p2072
g30
sVUSA
p2073
g30
sV8.7
p2074
g30
sV8.6
p2075
g30
sV8.9
p2076
g30
sV730
p2077
g30
sVoth
p2078
g30
sVoto
p2079
g30
sVota
p2080
g30
sV467
p2081
g30
sVote
p2082
g30
sVcor
p2083
g30
sVCDs
p2084
g30
sVots
p2085
g30
sVott
p2086
g30
sVrp.
p2087
g30
sVAnd
p2088
g30
sVAna
p2089
g30
sVrby
p2090
g30
sVuip
p2091
g30
sVAnn
p2092
g30
sVrbs
p2093
g30
sVuis
p2094
g30
sVPLC
p2095
g30
sVPLO
p2096
g30
sV-SE
p2097
g30
sVAny
p2098
g30
sVat
p2099
g30
sVavy
p2100
g30
sVwke
p2101
g30
sVave
p2102
g30
sVYou
p2103
g30
sVof.
p2104
g30
sVCar
p2105
g30
sVGAF
p2106
g30
sVohs
p2107
g30
sVils
p2108
g30
sV4.5
p2109
g30
sVyon
p2110
g30
sVios
p2111
g30
sVior
p2112
g30
sVv.
p2113
g30
sVion
p2114
g30
sVphy
p2115
g30
sV4.6
p2116
g30
sVphs
p2117
g30
sVigs
p2118
g30
sViod
p2119
g30
sVARS
p2120
g30
sVoff
p2121
g30
sV4.3
p2122
g30
sV4.2
p2123
g30
sVofs
p2124
g30
sV353
p2125
g30
sVoft
p2126
g30
sVoan
p2127
g30
sVcon
p2128
g30
sV44
p2129
g30
sVCan
p2130
g30
sVxed
p2131
g30
sVoal
p2132
g30
sVtcy
p2133
g30
sVxel
p2134
g30
sVoak
p2135
g30
sVtco
p2136
g30
sVtch
p2137
g30
sVCab
p2138
g30
sV70s
p2139
g30
sVweb
p2140
g30
sVFax
p2141
g30
sVumn
p2142
g30
sVsks
p2143
g30
sVwed
p2144
g30
sVFar
p2145
g30
sVgma
p2146
g30
sV:15
p2147
g30
sVsky
p2148
g30
sVady
p2149
g30
sVwes
p2150
g30
sVwer
p2151
g30
sVadd
p2152
g30
sVade
p2153
g30
sVska
p2154
g30
sVHKM
p2155
g30
sV280
p2156
g30
sVski
p2157
g30
sVBy
p2158
g30
sVgry
p2159
g30
sVXAS
p2160
g30
sVtc.
p2161
g30
sV260
p2162
g30
sV266
p2163
g30
sVB.
p2164
g30
sVLas
p2165
g30
sV988
p2166
g30
sV989
p2167
g30
sV982
p2168
g30
sVSun
p2169
g30
sV980
p2170
g30
sV981
p2171
g30
sV986
p2172
g30
sV987
p2173
g30
sVEES
p2174
g30
sV985
p2175
g30
sV115
p2176
g30
sV114
p2177
g30
sV117
p2178
g30
sV116
p2179
g30
sV111
p2180
g30
sV110
p2181
g30
sV113
p2182
g30
sV112
p2183
g30
sV119
p2184
g30
sV118
p2185
g30
sVest
p2186
g30
sVess
p2187
g30
sVnd.
p2188
g30
sVLLS
p2189
g30
sVubs
p2190
g30
sVese
p2191
g30
sV255
p2192
g30
sV?
g30
sVesh
p2193
g30
sVUs
p2194
g30
sVUNT
p2195
g30
sVvs.
p2196
g30
sV.N.
p2197
g30
sVVOA
p2198
g30
sVndo
p2199
g30
sVnda
p2200
g30
sVUS
p2201
g30
sVndy
p2202
g30
sVnds
p2203
g30
sVowl
p2204
g30
sVxas
p2205
g30
sVowe
p2206
g30
sVowd
p2207
g30
sVowa
p2208
g30
sVTwo
p2209
g30
sV.
g30
sVows
p2210
g30
sVvan
p2211
g30
sVval
p2212
g30
sVoul
p2213
g30
sV9.8
p2214
g30
sV9.9
p2215
g30
sVn-A
p2216
g30
sV9.4
p2217
g30
sVvas
p2218
g30
sV9.6
p2219
g30
sV9.7
p2220
g30
sV9.1
p2221
g30
sV9.3
p2222
g30
sVeak
p2223
g30
sVbuy
p2224
g30
sVeam
p2225
g30
sVeal
p2226
g30
sVean
p2227
g30
sVbur
p2228
g30
sVbus
p2229
g30
sVDes
p2230
g30
sVead
p2231
g30
sVbut
p2232
g30
sV701
p2233
g30
sVDel
p2234
g30
sVeap
p2235
g30
sVeas
p2236
g30
sVear
p2237
g30
sVeau
p2238
g30
sVDee
p2239
g30
sVhe
p2240
g30
sVTen
p2241
g30
sVlvy
p2242
g30
sVlve
p2243
g30
sV722
p2244
g30
sViny
p2245
g30
sVpin
p2246
g30
sVint
p2247
g30
sVpia
p2248
g30
sVpic
p2249
g30
sVpid
p2250
g30
sVpie
p2251
g30
sVins
p2252
g30
sVino
p2253
g30
sVink
p2254
g30
sVind
p2255
g30
sVine
p2256
g30
sVing
p2257
g30
sVpit
p2258
g30
sVina
p2259
g30
sVoad
p2260
g30
sV'll
p2261
g30
sV48
p2262
g30
sV49
p2263
g30
sV46
p2264
g30
sVJr.
p2265
g30
sVoam
p2266
g30
sV45
p2267
g30
sV42
p2268
g30
sV43
p2269
g30
sV40
p2270
g30
sV41
p2271
g30
sV-41
p2272
g30
sVoat
p2273
g30
sVout
p2274
g30
sVubt
p2275
g30
sVile
p2276
g30
sVube
p2277
g30
sVAct
p2278
g30
sVeod
p2279
g30
sVeon
p2280
g30
sVCEO
p2281
g30
sVhns
p2282
g30
ssS'_affix_length'
p2283
I-3
sbag21
asS'_n'
p2284
I1
sg27
(dp2285
sbag17
ag21
asg2284
I2
sg27
(dp2286
sbag13
ag17
ag21
asg2284
I3
sg27
(dp2287
sb.